target datalayout = "e-m:e-p270:32:32-p271:32:32-p272:64:64-i64:64-i128:128-f80:128-n8:16:32:64-S128"
target triple = "x86_64-pc-linux-gnu"

%struct.bufferevent_ssl = type { %struct.bufferevent_private, ptr, ptr, ptr, ptr, %struct.bio_data_counts, i64, [3 x i32], i8, i64 }
%struct.bufferevent_private = type { %struct.bufferevent, ptr, i8, i16, i16, i16, i32, i32, %struct.event_callback, i32, i32, ptr, i64, i64, ptr, %union.anon.7, ptr }
%struct.bufferevent = type { ptr, ptr, %struct.event, %struct.event, ptr, ptr, %struct.event_watermark, %struct.event_watermark, ptr, ptr, ptr, ptr, %struct.timeval, %struct.timeval, i16 }
%struct.event = type { %struct.event_callback, %union.anon.0, i32, i16, i16, ptr, %union.anon.2, %struct.timeval }
%union.anon.0 = type { %struct.anon.1 }
%struct.anon.1 = type { ptr, ptr }
%union.anon.2 = type { %struct.anon.3 }
%struct.anon.3 = type { %struct.anon.4, %struct.timeval }
%struct.anon.4 = type { ptr, ptr }
%struct.event_watermark = type { i64, i64 }
%struct.timeval = type { i64, i64 }
%struct.event_callback = type { %struct.anon, i16, i8, i8, %union.anon, ptr }
%struct.anon = type { ptr, ptr }
%union.anon = type { ptr }
%union.anon.7 = type { %struct.sockaddr_in6 }
%struct.sockaddr_in6 = type { i16, i16, i32, %struct.in6_addr, i32 }
%struct.in6_addr = type { %union.anon.8 }
%union.anon.8 = type { [4 x i32] }
%struct.bio_data_counts = type { i64, i64 }

@.str = private unnamed_addr constant [32 x i8] c"BUG: Unsupported feature %d: %s\00", align 1
@.str.1 = private unnamed_addr constant [42 x i8] c"BUG: Unexpected mbedtls error code %d: %s\00", align 1

; Function Attrs: nounwind uwtable
define internal void @conn_closed(ptr noundef %0, i32 noundef %1, i32 noundef %2, i32 noundef %3) #0 {
  %5 = alloca ptr, align 8
  %6 = alloca i32, align 4
  %7 = alloca i32, align 4
  %8 = alloca i32, align 4
  %9 = alloca i32, align 4
  %10 = alloca [100 x i8], align 16
  store ptr %0, ptr %5, align 8
  store i32 %1, ptr %6, align 4
  store i32 %2, ptr %7, align 4
  store i32 %3, ptr %8, align 4
  call void @llvm.lifetime.start.p0(i64 4, ptr %9) #3
  store i32 32, ptr %9, align 4
  call void @llvm.lifetime.start.p0(i64 100, ptr %10) #3
  %11 = load i32, ptr %6, align 4
  %12 = and i32 %11, 1
  %13 = icmp ne i32 %12, 0
  br i1 %13, label %14, label %25

14:                                               ; preds = %4
  %15 = load i32, ptr %8, align 4
  %16 = icmp eq i32 %15, 0
  br i1 %16, label %17, label %25

17:                                               ; preds = %14
  %18 = load ptr, ptr %5, align 8
  %19 = getelementptr inbounds nuw %struct.bufferevent_ssl, ptr %18, i32 0, i32 9
  %20 = load i64, ptr %19, align 8
  %21 = and i64 %20, 1
  %22 = icmp ne i64 %21, 0
  br i1 %22, label %23, label %24

23:                                               ; preds = %17
  store i32 16, ptr %9, align 4
  br label %24

24:                                               ; preds = %23, %17
  br label %40

25:                                               ; preds = %14, %4
  %26 = load i32, ptr %7, align 4
  %27 = getelementptr inbounds [100 x i8], ptr %10, i64 0, i64 0
  call void @mbedtls_strerror(i32 noundef %26, ptr noundef %27, i64 noundef 100)
  %28 = load i32, ptr %7, align 4
  switch i32 %28, label %33 [
    i32 -30848, label %29
    i32 -26496, label %30
  ]

29:                                               ; preds = %25
  store i32 16, ptr %9, align 4
  br label %36

30:                                               ; preds = %25
  %31 = load i32, ptr %7, align 4
  %32 = getelementptr inbounds [100 x i8], ptr %10, i64 0, i64 0
  call void (ptr, ...) @event_warnx(ptr noundef @.str, i32 noundef %31, ptr noundef %32)
  br label %36

33:                                               ; preds = %25
  %34 = load i32, ptr %7, align 4
  %35 = getelementptr inbounds [100 x i8], ptr %10, i64 0, i64 0
  call void (ptr, ...) @event_warnx(ptr noundef @.str.1, i32 noundef %34, ptr noundef %35)
  br label %36

36:                                               ; preds = %33, %30, %29
  %37 = load ptr, ptr %5, align 8
  %38 = load i32, ptr %7, align 4
  %39 = sext i32 %38 to i64
  call void @bufferevent_ssl_put_error(ptr noundef %37, i64 noundef %39)
  br label %40

40:                                               ; preds = %36, %24
  %41 = load ptr, ptr %5, align 8
  call void @bufferevent_ssl_stop_reading(ptr noundef %41)
  %42 = load ptr, ptr %5, align 8
  call void @bufferevent_ssl_stop_writing(ptr noundef %42)
  %43 = load ptr, ptr %5, align 8
  %44 = getelementptr inbounds nuw %struct.bufferevent_ssl, ptr %43, i32 0, i32 0
  %45 = getelementptr inbounds nuw %struct.bufferevent_private, ptr %44, i32 0, i32 0
  %46 = load i32, ptr %6, align 4
  %47 = load i32, ptr %9, align 4
  %48 = or i32 %46, %47
  %49 = trunc i32 %48 to i16
  call void @bufferevent_run_eventcb_(ptr noundef %45, i16 noundef signext %49, i32 noundef 0)
  call void @llvm.lifetime.end.p0(i64 100, ptr %10) #3
  call void @llvm.lifetime.end.p0(i64 4, ptr %9) #3
  ret void
}