; Function Attrs: nounwind uwtable
define internal void @conn_closed(ptr noundef %0, i32 noundef %1, i32 noundef %2, i32 noundef %3) #0 {
  %5 = alloca [100 x i8], align 16
  call void @llvm.lifetime.start.p0(i64 100, ptr nonnull %5) #5
  %6 = and i32 %1, 1
  %7 = icmp ne i32 %6, 0
  %8 = icmp eq i32 %3, 0
  %or.cond = and i1 %7, %8
  br i1 %or.cond, label %9, label %13

9:                                                ; preds = %4
  %10 = getelementptr inbounds nuw i8, ptr %0, i64 592
  %11 = load i64, ptr %10, align 8
  %12 = and i64 %11, 1
  %.not = icmp eq i64 %12, 0
  %spec.select = select i1 %.not, i32 32, i32 16
  br label %18

13:                                               ; preds = %4
  call void @mbedtls_strerror(i32 noundef %2, ptr noundef nonnull %5, i64 noundef 100) #5
  switch i32 %2, label %15 [
    i32 -30848, label %16
    i32 -26496, label %14
  ]

14:                                               ; preds = %13
  call void (ptr, ...) @event_warnx(ptr noundef nonnull @.str, i32 noundef -26496, ptr noundef nonnull %5) #5
  br label %16

15:                                               ; preds = %13
  call void (ptr, ...) @event_warnx(ptr noundef nonnull @.str.1, i32 noundef %2, ptr noundef nonnull %5) #5
  br label %16

16:                                               ; preds = %13, %15, %14
  %.1 = phi i32 [ 32, %15 ], [ 32, %14 ], [ 16, %13 ]
  %17 = sext i32 %2 to i64
  call void @bufferevent_ssl_put_error(ptr noundef %0, i64 noundef %17) #5
  br label %18

18:                                               ; preds = %9, %16
  %.0 = phi i32 [ %.1, %16 ], [ %spec.select, %9 ]
  call void @bufferevent_ssl_stop_reading(ptr noundef %0) #5
  call void @bufferevent_ssl_stop_writing(ptr noundef %0) #5
  %19 = or i32 %.0, %1
  %20 = trunc i32 %19 to i16
  call void @bufferevent_run_eventcb_(ptr noundef %0, i16 noundef signext %20, i32 noundef 0) #5
  call void @llvm.lifetime.end.p0(i64 100, ptr nonnull %5) #5
  ret void
}